; Function Attrs: mustprogress nofree norecurse nosync nounwind memory(read, argmem: readwrite, inaccessiblemem: none) uwtable
define void @_ZN5nblib8LeapFrog9integrateEfN3gmx8ArrayRefINS1_11BasicVectorIfEEEES5_NS2_IKS4_EE(ptr noundef nonnull readonly align 8 captures(none) dereferenceable(64) %0, float noundef %1, ptr %2, ptr %3, ptr captures(none) %4, ptr readnone captures(none) %5, ptr noundef readonly byval(%"class.gmx::ArrayRef.186") align 8 captures(none) %6) local_unnamed_addr #8 align 2 {
  %.not = icmp eq ptr %3, %2
  br i1 %.not, label %._crit_edge, label %.preheader.lr.ph

.preheader.lr.ph:                                 ; preds = %7
  %8 = ptrtoint ptr %3 to i64
  %9 = ptrtoint ptr %2 to i64
  %10 = sub i64 %8, %9
  %11 = sdiv exact i64 %10, 12
  %12 = load i64, ptr %6, align 8
  %13 = inttoptr i64 %12 to ptr
  %14 = load ptr, ptr %0, align 8, !tbaa !12
  %umax = tail call i64 @llvm.umax.i64(i64 %11, i64 1)
  br label %.preheader

.preheader:                                       ; preds = %.preheader.lr.ph, %19
  %.01520 = phi i64 [ 0, %.preheader.lr.ph ], [ %20, %19 ]
  %15 = getelementptr inbounds %"class.gmx::BasicVector", ptr %13, i64 %.01520
  %16 = getelementptr inbounds nuw float, ptr %14, i64 %.01520
  %17 = getelementptr inbounds %"class.gmx::BasicVector", ptr %4, i64 %.01520
  %18 = getelementptr inbounds %"class.gmx::BasicVector", ptr %2, i64 %.01520
  br label %21

._crit_edge:                                      ; preds = %19, %7
  ret void

19:                                               ; preds = %21
  %20 = add nuw i64 %.01520, 1
  %exitcond22.not = icmp eq i64 %20, %umax
  br i1 %exitcond22.not, label %._crit_edge, label %.preheader, !llvm.loop !36

21:                                               ; preds = %.preheader, %21
  %indvars.iv = phi i64 [ 0, %.preheader ], [ %indvars.iv.next, %21 ]
  %22 = getelementptr inbounds nuw [3 x float], ptr %15, i64 0, i64 %indvars.iv
  %23 = load float, ptr %22, align 4, !tbaa !22
  %24 = fmul float %1, %23
  %25 = load float, ptr %16, align 4, !tbaa !22
  %26 = getelementptr inbounds nuw [3 x float], ptr %17, i64 0, i64 %indvars.iv
  %27 = load float, ptr %26, align 4, !tbaa !22
  %28 = tail call float @llvm.fmuladd.f32(float %24, float %25, float %27)
  store float %28, ptr %26, align 4, !tbaa !22
  %29 = getelementptr inbounds nuw [3 x float], ptr %18, i64 0, i64 %indvars.iv
  %30 = load float, ptr %29, align 4, !tbaa !22
  %31 = tail call float @llvm.fmuladd.f32(float %28, float %1, float %30)
  store float %31, ptr %29, align 4, !tbaa !22
  %indvars.iv.next = add nuw nsw i64 %indvars.iv, 1
  %exitcond.not = icmp eq i64 %indvars.iv.next, 3
  br i1 %exitcond.not, label %19, label %21, !llvm.loop !37
}